; Function Attrs: mustprogress nounwind uwtable
define hidden void @_ZN5ZMark21follow_array_elementsEP8zpointermb(ptr noundef nonnull align 64 dereferenceable(2652) %0, ptr noundef %1, i64 noundef %2, i1 noundef zeroext %3) local_unnamed_addr #0 align 2 {
  %5 = icmp ult i64 %2, 513
  br i1 %5, label %6, label %16

6:                                                ; preds = %4
  %7 = getelementptr inbounds i64, ptr %1, i64 %2
  %.not = icmp eq i64 %2, 0
  br i1 %.not, label %_ZN5ZMark27follow_array_elements_smallEP8zpointermb.exit, label %.lr.ph.i.i

.lr.ph.i.i:                                       ; preds = %6
  %8 = load ptr, ptr %0, align 64
  %9 = getelementptr inbounds i8, ptr %8, i64 8
  %10 = load i8, ptr %9, align 8
  %11 = icmp eq i8 %10, 0
  br i1 %11, label %.lr.ph.split.us.i.i, label %.lr.ph.split.i.i

.lr.ph.split.us.i.i:                              ; preds = %.lr.ph.i.i, %.lr.ph.split.us.i.i
  %.08.us.i.i = phi ptr [ %12, %.lr.ph.split.us.i.i ], [ %1, %.lr.ph.i.i ]
  tail call void @_ZN8ZBarrier31mark_barrier_on_young_oop_fieldEPV8zpointer(ptr noundef %.08.us.i.i)
  %12 = getelementptr inbounds i8, ptr %.08.us.i.i, i64 8
  %13 = icmp ult ptr %12, %7
  br i1 %13, label %.lr.ph.split.us.i.i, label %_ZN5ZMark27follow_array_elements_smallEP8zpointermb.exit, !llvm.loop !11

.lr.ph.split.i.i:                                 ; preds = %.lr.ph.i.i, %.lr.ph.split.i.i
  %.08.i.i = phi ptr [ %14, %.lr.ph.split.i.i ], [ %1, %.lr.ph.i.i ]
  tail call void @_ZN8ZBarrier29mark_barrier_on_old_oop_fieldEPV8zpointerb(ptr noundef %.08.i.i, i1 noundef zeroext %3)
  %14 = getelementptr inbounds i8, ptr %.08.i.i, i64 8
  %15 = icmp ult ptr %14, %7
  br i1 %15, label %.lr.ph.split.i.i, label %_ZN5ZMark27follow_array_elements_smallEP8zpointermb.exit, !llvm.loop !11

16:                                               ; preds = %4
  tail call void @_ZN5ZMark27follow_array_elements_largeEP8zpointermb(ptr noundef nonnull align 64 dereferenceable(2652) %0, ptr noundef %1, i64 noundef %2, i1 noundef zeroext %3)
  br label %_ZN5ZMark27follow_array_elements_smallEP8zpointermb.exit

_ZN5ZMark27follow_array_elements_smallEP8zpointermb.exit: ; preds = %.lr.ph.split.i.i, %.lr.ph.split.us.i.i, %6, %16
  ret void
}